Certificate:
    Data:
        Version: 3 (0x2)
        Serial Number: 4099 (0x1003)
    Signature Algorithm: ecdsa-with-SHA384
        Issuer: C=UA, ST=Kyiv, O=Synrc Research Center, OU=Intermediate CA, CN=SYNRC-INTER
        Validity
            Not Before: Aug 13 12:13:09 2019 GMT
            Not After : Aug 12 12:13:09 2021 GMT
        Subject: C=UA, ST=Kyiv, L=Kyiv, O=Synrc Research Center, OU=Intermediate CA, CN=Maxim
        Subject Public Key Info:
            Public Key Algorithm: id-ecPublicKey
                Public-Key: (384 bit)
                pub: 
                    04:e8:82:0e:ec:cf:36:ff:bf:b4:8f:24:a6:32:9d:
                    e3:a8:e7:87:96:18:8a:46:e3:4e:f8:54:14:4c:91:
                    44:b4:24:a3:f3:72:bc:e3:fc:2c:17:f1:5f:f3:76:
                    d5:74:a2:33:e3:f3:7e:41:2d:db:fe:0a:c9:ac:a6:
                    0a:b5:49:b9:01:e0:15:84:49:89:be:bf:bf:c0:dc:
                    60:1c:07:89:b7:64:66:5a:d1:a0:36:04:f4:43:93:
                    65:19:f6:e2:1a:63:75
                ASN1 OID: secp384r1
                NIST CURVE: P-384
        X509v3 extensions:
            X509v3 Basic Constraints: 
                CA:FALSE
            Netscape Cert Type: 
                SSL Client, S/MIME
            Netscape Comment: 
                Client Certificate
            X509v3 Subject Key Identifier: 
                39:B2:F2:28:84:DE:11:4E:CF:AA:47:95:16:F5:F8:B3:82:C1:3F:02
            X509v3 Authority Key Identifier: 
                keyid:5F:01:CC:F7:D6:39:7E:BD:12:1A:71:60:2F:29:A2:12:F5:5F:FA:25

            X509v3 Key Usage: critical
                Digital Signature, Non Repudiation, Key Encipherment
            X509v3 Extended Key Usage: 
                TLS Web Client Authentication, E-mail Protection
    Signature Algorithm: ecdsa-with-SHA384
         30:65:02:31:00:e1:66:10:7b:ee:90:c1:ac:7b:12:16:0b:3b:
         2d:2c:2b:fc:72:21:20:fb:55:32:5d:c8:87:e7:15:19:e4:34:
         85:5a:1c:5c:f0:ed:92:66:5c:fc:ce:fa:53:11:e6:2f:21:02:
         30:33:01:88:e7:2b:4b:9f:15:b1:3a:5e:fd:41:8d:00:b5:d8:
         55:b3:15:6e:33:d4:94:db:80:c1:d2:b2:7c:24:0b:2c:55:2c:
         76:64:bc:9f:78:9c:20:73:f0:28:ce:0d:fd
-----BEGIN CERTIFICATE-----
MIICwjCCAkigAwIBAgICEAMwCgYIKoZIzj0EAwMwbDELMAkGA1UEBhMCVUExDTAL
BgNVBAgMBEt5aXYxHjAcBgNVBAoMFVN5bnJjIFJlc2VhcmNoIENlbnRlcjEYMBYG
A1UECwwPSW50ZXJtZWRpYXRlIENBMRQwEgYDVQQDDAtTWU5SQy1JTlRFUjAeFw0x
OTA4MTMxMjEzMDlaFw0yMTA4MTIxMjEzMDlaMHUxCzAJBgNVBAYTAlVBMQ0wCwYD
VQQIDARLeWl2MQ0wCwYDVQQHDARLeWl2MR4wHAYDVQQKDBVTeW5yYyBSZXNlYXJj
aCBDZW50ZXIxGDAWBgNVBAsMD0ludGVybWVkaWF0ZSBDQTEOMAwGA1UEAwwFTWF4
aW0wdjAQBgcqhkjOPQIBBgUrgQQAIgNiAATogg7szzb/v7SPJKYyneOo54eWGIpG
4074VBRMkUS0JKPzcrzj/CwX8V/zdtV0ojPj835BLdv+Csmspgq1SbkB4BWESYm+
v7/A3GAcB4m3ZGZa0aA2BPRDk2UZ9uIaY3WjgbMwgbAwCQYDVR0TBAIwADARBglg
hkgBhvhCAQEEBAMCBaAwIQYJYIZIAYb4QgENBBQWEkNsaWVudCBDZXJ0aWZpY2F0
ZTAdBgNVHQ4EFgQUObLyKITeEU7PqkeVFvX4s4LBPwIwHwYDVR0jBBgwFoAUXwHM
99Y5fr0SGnFgLymiEvVf+iUwDgYDVR0PAQH/BAQDAgXgMB0GA1UdJQQWMBQGCCsG
AQUFBwMCBggrBgEFBQcDBDAKBggqhkjOPQQDAwNoADBlAjEA4WYQe+6Qwax7EhYL
Oy0sK/xyISD7VTJdyIfnFRnkNIVaHFzw7ZJmXPzO+lMR5i8hAjAzAYjnK0ufFbE6
Xv1BjQC12FWzFW4z1JTbgMHSsnwkCyxVLHZkvJ94nCBz8CjODf0=
-----END CERTIFICATE-----
