Certificate:
    Data:
        Version: 3 (0x2)
        Serial Number: 4096 (0x1000)
    Signature Algorithm: ecdsa-with-SHA384
        Issuer: C=UA, ST=Kyiv, L=Kyiv, O=Synrc Research Center, OU=HQ, CN=SYNRC
        Validity
            Not Before: Aug 13 12:07:34 2019 GMT
            Not After : Jun 21 12:07:34 2029 GMT
        Subject: C=UA, ST=Kyiv, O=Synrc Research Center, OU=Intermediate CA, CN=SYNRC-INTER
        Subject Public Key Info:
            Public Key Algorithm: id-ecPublicKey
                Public-Key: (384 bit)
                pub: 
                    04:00:79:f8:3a:d7:45:55:bc:57:4c:93:a7:f3:01:
                    bb:10:04:a7:93:4a:b4:66:8f:95:ca:38:3d:7b:a9:
                    52:7e:ee:53:a2:cc:19:1c:b1:e1:70:48:dc:20:13:
                    a6:78:d4:ca:52:e5:1e:1b:cc:dc:0b:e7:a4:4a:ab:
                    c9:53:76:e6:8a:06:63:a0:2e:e4:9b:cd:e2:14:c2:
                    45:ee:a9:30:c2:7c:37:5b:cc:43:71:9a:22:74:b9:
                    5e:ae:ce:c2:7b:e9:b8
                ASN1 OID: secp384r1
                NIST CURVE: P-384
        X509v3 extensions:
            X509v3 Subject Key Identifier: 
                5F:01:CC:F7:D6:39:7E:BD:12:1A:71:60:2F:29:A2:12:F5:5F:FA:25
            X509v3 Authority Key Identifier: 
                keyid:35:9E:91:EC:40:16:70:AC:3A:8F:71:73:4E:37:50:3E:2C:38:14:97

            X509v3 Basic Constraints: critical
                CA:TRUE, pathlen:0
            X509v3 Key Usage: critical
                Digital Signature, Certificate Sign, CRL Sign
            X509v3 CRL Distribution Points: 

                Full Name:
                  URI:http://crl.n2o.dev:8081/ecdsaroot.crl

            Authority Information Access: 
                CA Issuers - URI:http://crl.n2o.dev:8081/ecdsaroot.crt
                OCSP - URI:http://ocsp.n2o.dev:8081/

    Signature Algorithm: ecdsa-with-SHA384
         30:64:02:30:1b:c3:3f:38:63:5a:95:c7:4b:71:ef:e9:f5:bc:
         74:fd:3e:ab:e2:b0:8b:42:d9:ca:7d:72:46:f7:21:10:37:ec:
         2a:dc:6d:54:65:01:dc:9c:b2:a1:d7:ca:88:ec:f8:61:02:30:
         43:77:e8:cf:ea:73:f4:2e:f0:49:8d:db:9c:38:21:fb:bf:d7:
         58:55:18:ab:f7:e1:d5:fa:ee:13:b9:9c:5d:1b:98:e0:60:6e:
         40:ad:18:f7:83:69:47:e6:c8:60:54:76
-----BEGIN CERTIFICATE-----
MIIDDDCCApOgAwIBAgICEAAwCgYIKoZIzj0EAwMwaDELMAkGA1UEBhMCVUExDTAL
BgNVBAgMBEt5aXYxDTALBgNVBAcMBEt5aXYxHjAcBgNVBAoMFVN5bnJjIFJlc2Vh
cmNoIENlbnRlcjELMAkGA1UECwwCSFExDjAMBgNVBAMMBVNZTlJDMB4XDTE5MDgx
MzEyMDczNFoXDTI5MDYyMTEyMDczNFowbDELMAkGA1UEBhMCVUExDTALBgNVBAgM
BEt5aXYxHjAcBgNVBAoMFVN5bnJjIFJlc2VhcmNoIENlbnRlcjEYMBYGA1UECwwP
SW50ZXJtZWRpYXRlIENBMRQwEgYDVQQDDAtTWU5SQy1JTlRFUjB2MBAGByqGSM49
AgEGBSuBBAAiA2IABAB5+DrXRVW8V0yTp/MBuxAEp5NKtGaPlco4PXupUn7uU6LM
GRyx4XBI3CATpnjUylLlHhvM3AvnpEqryVN25ooGY6Au5JvN4hTCRe6pMMJ8N1vM
Q3GaInS5Xq7OwnvpuKOCAQowggEGMB0GA1UdDgQWBBRfAcz31jl+vRIacWAvKaIS
9V/6JTAfBgNVHSMEGDAWgBQ1npHsQBZwrDqPcXNON1A+LDgUlzASBgNVHRMBAf8E
CDAGAQH/AgEAMA4GA1UdDwEB/wQEAwIBhjA2BgNVHR8ELzAtMCugKaAnhiVodHRw
Oi8vY3JsLm4yby5kZXY6ODA4MS9lY2RzYXJvb3QuY3JsMGgGCCsGAQUFBwEBBFww
WjAxBggrBgEFBQcwAoYlaHR0cDovL2NybC5uMm8uZGV2OjgwODEvZWNkc2Fyb290
LmNydDAlBggrBgEFBQcwAYYZaHR0cDovL29jc3AubjJvLmRldjo4MDgxLzAKBggq
hkjOPQQDAwNnADBkAjAbwz84Y1qVx0tx7+n1vHT9PqvisItC2cp9ckb3IRA37Crc
bVRlAdycsqHXyojs+GECMEN36M/qc/Qu8EmN25w4Ifu/11hVGKv34dX67hO5nF0b
mOBgbkCtGPeDaUfmyGBUdg==
-----END CERTIFICATE-----
-----BEGIN CERTIFICATE-----
MIICZzCCAe2gAwIBAgIJAPkQ/X4R/+wZMAoGCCqGSM49BAMDMGgxCzAJBgNVBAYT
AlVBMQ0wCwYDVQQIDARLeWl2MQ0wCwYDVQQHDARLeWl2MR4wHAYDVQQKDBVTeW5y
YyBSZXNlYXJjaCBDZW50ZXIxCzAJBgNVBAsMAkhRMQ4wDAYDVQQDDAVTWU5SQzAe
Fw0xOTA4MTMxMjA3MTNaFw0yOTA4MTAxMjA3MTNaMGgxCzAJBgNVBAYTAlVBMQ0w
CwYDVQQIDARLeWl2MQ0wCwYDVQQHDARLeWl2MR4wHAYDVQQKDBVTeW5yYyBSZXNl
YXJjaCBDZW50ZXIxCzAJBgNVBAsMAkhRMQ4wDAYDVQQDDAVTWU5SQzB2MBAGByqG
SM49AgEGBSuBBAAiA2IABFbde7DdSJAMuVFIgwIKIqS3oSPR8+Eu1nuDZ57nX0El
X3uQPIo+ScsA50DAVljnLzsZ+/nf+ZUtQQ9LX0vIsGSU5RkxjhF/BYr3Y3DCDEYU
iiOEGLlVRMnMSXIi9EIWGKNjMGEwHQYDVR0OBBYEFDWekexAFnCsOo9xc043UD4s
OBSXMB8GA1UdIwQYMBaAFDWekexAFnCsOo9xc043UD4sOBSXMA8GA1UdEwEB/wQF
MAMBAf8wDgYDVR0PAQH/BAQDAgGGMAoGCCqGSM49BAMDA2gAMGUCMQDGxb2BY8Yh
R6+zjt7pdbEJTUkFgK+d6Mxny2cV7GYq/RDAMC1MIEKj7DJMwaLUzzUCMAwR9/oU
AJNCJNpSg5IDCw1NLLQh2V3ssqGgpQdB80x31AJp8pwUKFsBLnw9hJYUtg==
-----END CERTIFICATE-----
