Certificate:
    Data:
        Version: 3 (0x2)
        Serial Number: 4097 (0x1001)
    Signature Algorithm: ecdsa-with-SHA384
        Issuer: C=UA, ST=Kyiv, O=Synrc Research Center, OU=Intermediate CA, CN=SYNRC-INTER
        Validity
            Not Before: Aug 13 12:11:13 2019 GMT
            Not After : Aug 12 12:11:13 2021 GMT
        Subject: C=UA, ST=Kyiv, L=Kyiv, O=Synrc Research Center, OU=Intermediate CA, CN=SYNRC-SRV
        Subject Public Key Info:
            Public Key Algorithm: id-ecPublicKey
                Public-Key: (384 bit)
                pub: 
                    04:16:42:19:55:71:99:9a:b1:e7:7a:30:78:30:00:
                    f9:e9:7b:83:4d:dc:3c:a2:b8:78:8d:64:61:49:56:
                    d1:d4:55:12:13:2b:68:b6:b0:b4:8b:c2:b2:20:86:
                    11:14:77:52:9e:99:3f:64:41:60:d8:7c:e8:7d:64:
                    c2:72:55:2e:bc:43:4d:7a:ee:a0:7c:b1:21:96:7a:
                    cd:d0:9c:04:61:38:c0:d6:9f:52:db:36:ae:c1:9f:
                    d8:34:e8:af:86:de:cb
                ASN1 OID: secp384r1
                NIST CURVE: P-384
        X509v3 extensions:
            X509v3 Basic Constraints: 
                CA:FALSE
            Netscape Cert Type: 
                SSL Server
            Netscape Comment: 
                Synrc Server Certificate
            X509v3 Subject Key Identifier: 
                36:1B:A0:B1:8B:5F:CA:39:9F:5D:BB:8B:C5:0A:D6:15:C0:ED:8B:87
            X509v3 Authority Key Identifier: 
                keyid:5F:01:CC:F7:D6:39:7E:BD:12:1A:71:60:2F:29:A2:12:F5:5F:FA:25
                DirName:/C=UA/ST=Kyiv/L=Kyiv/O=Synrc Research Center/OU=HQ/CN=SYNRC
                serial:10:00

            X509v3 Key Usage: critical
                Digital Signature, Key Encipherment
            X509v3 Extended Key Usage: 
                TLS Web Server Authentication
            X509v3 CRL Distribution Points: 

                Full Name:
                  URI:http://crl.n2o.dev:8081/ecdsaint.crl

            Authority Information Access: 
                CA Issuers - URI:http://crl.n2o.dev:8081/ecdsaroot.crt
                CA Issuers - URI:http://crl.n2o.dev:8081/ecdsaint.crt
                OCSP - URI:http://ocsp.n2o.dev:8081/

            X509v3 Subject Alternative Name: 
                DNS:ca.n2o.dev, DNS:pki.n2o.dev
    Signature Algorithm: ecdsa-with-SHA384
         30:66:02:31:00:96:e2:6e:6d:71:19:80:aa:2d:2b:a1:5f:19:
         ee:13:e8:71:46:db:b1:eb:07:53:3e:84:01:b9:20:43:bd:77:
         c1:5e:76:a4:eb:96:5c:7c:21:0b:2d:11:35:b3:47:71:82:02:
         31:00:a7:e4:64:20:ae:6d:30:50:d8:9b:02:d8:49:45:3d:77:
         ec:07:97:f2:a7:78:25:5f:15:06:3c:e4:b6:f9:ef:86:ac:eb:
         18:a3:d2:83:34:61:8a:e4:38:e1:a2:49:2a:d5
-----BEGIN CERTIFICATE-----
MIIENDCCA7mgAwIBAgICEAEwCgYIKoZIzj0EAwMwbDELMAkGA1UEBhMCVUExDTAL
BgNVBAgMBEt5aXYxHjAcBgNVBAoMFVN5bnJjIFJlc2VhcmNoIENlbnRlcjEYMBYG
A1UECwwPSW50ZXJtZWRpYXRlIENBMRQwEgYDVQQDDAtTWU5SQy1JTlRFUjAeFw0x
OTA4MTMxMjExMTNaFw0yMTA4MTIxMjExMTNaMHkxCzAJBgNVBAYTAlVBMQ0wCwYD
VQQIDARLeWl2MQ0wCwYDVQQHDARLeWl2MR4wHAYDVQQKDBVTeW5yYyBSZXNlYXJj
aCBDZW50ZXIxGDAWBgNVBAsMD0ludGVybWVkaWF0ZSBDQTESMBAGA1UEAwwJU1lO
UkMtU1JWMHYwEAYHKoZIzj0CAQYFK4EEACIDYgAEFkIZVXGZmrHnejB4MAD56XuD
Tdw8orh4jWRhSVbR1FUSEytotrC0i8KyIIYRFHdSnpk/ZEFg2HzofWTCclUuvENN
eu6gfLEhlnrN0JwEYTjA1p9S2zauwZ/YNOivht7Lo4ICHzCCAhswCQYDVR0TBAIw
ADARBglghkgBhvhCAQEEBAMCBkAwJwYJYIZIAYb4QgENBBoWGFN5bnJjIFNlcnZl
ciBDZXJ0aWZpY2F0ZTAdBgNVHQ4EFgQUNhugsYtfyjmfXbuLxQrWFcDti4cwgZMG
A1UdIwSBizCBiIAUXwHM99Y5fr0SGnFgLymiEvVf+iWhbKRqMGgxCzAJBgNVBAYT
AlVBMQ0wCwYDVQQIDARLeWl2MQ0wCwYDVQQHDARLeWl2MR4wHAYDVQQKDBVTeW5y
YyBSZXNlYXJjaCBDZW50ZXIxCzAJBgNVBAsMAkhRMQ4wDAYDVQQDDAVTWU5SQ4IC
EAAwDgYDVR0PAQH/BAQDAgWgMBMGA1UdJQQMMAoGCCsGAQUFBwMBMDUGA1UdHwQu
MCwwKqAooCaGJGh0dHA6Ly9jcmwubjJvLmRldjo4MDgxL2VjZHNhaW50LmNybDCB
nAYIKwYBBQUHAQEEgY8wgYwwMQYIKwYBBQUHMAKGJWh0dHA6Ly9jcmwubjJvLmRl
djo4MDgxL2VjZHNhcm9vdC5jcnQwMAYIKwYBBQUHMAKGJGh0dHA6Ly9jcmwubjJv
LmRldjo4MDgxL2VjZHNhaW50LmNydDAlBggrBgEFBQcwAYYZaHR0cDovL29jc3Au
bjJvLmRldjo4MDgxLzAiBgNVHREEGzAZggpjYS5uMm8uZGV2ggtwa2kubjJvLmRl
djAKBggqhkjOPQQDAwNpADBmAjEAluJubXEZgKotK6FfGe4T6HFG27HrB1M+hAG5
IEO9d8FedqTrllx8IQstETWzR3GCAjEAp+RkIK5tMFDYmwLYSUU9d+wHl/KneCVf
FQY85Lb574as6xij0oM0YYrkOOGiSSrV
-----END CERTIFICATE-----
