Certificate:
    Data:
        Version: 3 (0x2)
        Serial Number: 4096 (0x1000)
        Signature Algorithm: ecdsa-with-SHA384
        Issuer: C=UA, ST=Kyiv, O=SYNRC, CN=CA
        Validity
            Not Before: Nov  4 19:59:44 2024 GMT
            Not After : Nov  4 19:59:44 2025 GMT
        Subject: C=UA, ST=Kyiv, O=SYNRC, CN=maxim
        Subject Public Key Info:
            Public Key Algorithm: id-ecPublicKey
                Public-Key: (384 bit)
                pub:
                    04:27:d2:bf:e7:92:a6:59:d4:00:c3:22:2f:d6:89:
                    78:2f:ee:15:bd:b7:d5:e8:e1:33:b6:9f:89:16:24:
                    dd:2f:60:fb:2b:8a:a6:83:1c:ae:2d:9a:a3:dd:1d:
                    74:c2:bf:db:81:d7:40:b3:f3:4b:f5:e6:df:9a:fe:
                    db:3e:5c:62:97:4c:8e:ff:25:a0:ff:b4:5b:bb:f9:
                    55:dc:e1:f1:f8:98:f2:48:9d:8e:01:59:1e:22:ea:
                    07:b3:60:54:83:46:49
                ASN1 OID: secp384r1
                NIST CURVE: P-384
        X509v3 extensions:
            X509v3 Basic Constraints: 
                CA:TRUE
            Netscape Cert Type: 
                SSL Client, S/MIME
            Netscape Comment: 
                SYNRC CLIENT
            X509v3 Subject Key Identifier: 
                F2:8F:BB:B1:86:59:2A:21:04:BF:20:08:95:5B:CD:99:ED:DC:8E:60
            X509v3 Authority Key Identifier: 
                5A:7F:83:A2:0E:05:E8:A2:2B:04:35:DE:9A:D9:AD:10:15:1C:63:30
            X509v3 Key Usage: critical
                Digital Signature, Non Repudiation, Key Encipherment
            X509v3 Extended Key Usage: 
                TLS Web Client Authentication, E-mail Protection
            X509v3 Subject Alternative Name: 
                DNS:localhost
    Signature Algorithm: ecdsa-with-SHA384
    Signature Value:
        30:64:02:30:74:1c:dd:57:81:ec:73:62:80:71:9d:45:e1:1c:
        e9:8c:76:43:33:77:4b:e8:7f:04:2c:3e:f1:09:2b:86:94:af:
        f5:6b:a1:8f:6f:7a:c5:19:4b:16:bc:fb:3c:8b:df:85:02:30:
        63:63:7c:10:27:29:de:33:35:fd:3e:69:60:2c:bd:bc:d3:3e:
        3b:47:06:54:09:da:ef:75:7e:36:ac:71:48:30:b0:bb:02:81:
        b7:3a:77:86:7a:68:18:e5:5a:cf:dd:91
-----BEGIN CERTIFICATE-----
MIICaDCCAe+gAwIBAgICEAAwCgYIKoZIzj0EAwMwOTELMAkGA1UEBhMCVUExDTAL
BgNVBAgMBEt5aXYxDjAMBgNVBAoMBVNZTlJDMQswCQYDVQQDDAJDQTAeFw0yNDEx
MDQxOTU5NDRaFw0yNTExMDQxOTU5NDRaMDwxCzAJBgNVBAYTAlVBMQ0wCwYDVQQI
DARLeWl2MQ4wDAYDVQQKDAVTWU5SQzEOMAwGA1UEAwwFbWF4aW0wdjAQBgcqhkjO
PQIBBgUrgQQAIgNiAAQn0r/nkqZZ1ADDIi/WiXgv7hW9t9Xo4TO2n4kWJN0vYPsr
iqaDHK4tmqPdHXTCv9uB10Cz80v15t+a/ts+XGKXTI7/JaD/tFu7+VXc4fH4mPJI
nY4BWR4i6gezYFSDRkmjgcYwgcMwDAYDVR0TBAUwAwEB/zARBglghkgBhvhCAQEE
BAMCBaAwGwYJYIZIAYb4QgENBA4WDFNZTlJDIENMSUVOVDAdBgNVHQ4EFgQU8o+7
sYZZKiEEvyAIlVvNme3cjmAwHwYDVR0jBBgwFoAUWn+Dog4F6KIrBDXemtmtEBUc
YzAwDgYDVR0PAQH/BAQDAgXgMB0GA1UdJQQWMBQGCCsGAQUFBwMCBggrBgEFBQcD
BDAUBgNVHREEDTALgglsb2NhbGhvc3QwCgYIKoZIzj0EAwMDZwAwZAIwdBzdV4Hs
c2KAcZ1F4RzpjHZDM3dL6H8ELD7xCSuGlK/1a6GPb3rFGUsWvPs8i9+FAjBjY3wQ
JyneMzX9PmlgLL280z47RwZUCdrvdX42rHFIMLC7AoG3OneGemgY5VrP3ZE=
-----END CERTIFICATE-----
