Certificate:
    Data:
        Version: 3 (0x2)
        Serial Number: 4097 (0x1001)
        Signature Algorithm: ecdsa-with-SHA384
        Issuer: C=UA, ST=Kyiv, O=SYNRC, CN=CA
        Validity
            Not Before: Nov  4 20:02:33 2024 GMT
            Not After : Nov  4 20:02:33 2026 GMT
        Subject: C=UA, ST=Kyiv, O=SYNRC, CN=server
        Subject Public Key Info:
            Public Key Algorithm: id-ecPublicKey
                Public-Key: (384 bit)
                pub:
                    04:8d:98:29:43:f2:c4:8b:14:3f:27:bc:f7:91:bd:
                    31:5f:6d:6d:af:77:e0:ad:21:5e:e1:f3:ee:dd:c6:
                    b8:eb:d7:02:7b:f7:b2:61:08:59:1f:e8:73:d9:77:
                    bd:76:02:f7:46:14:ba:31:8a:e1:a4:df:5c:cb:22:
                    4f:24:23:80:15:5d:41:f7:2a:fd:f2:8b:7e:15:cb:
                    93:43:38:61:2f:46:c6:cd:c7:55:94:96:ea:26:50:
                    6f:f2:ac:81:50:d6:fe
                ASN1 OID: secp384r1
                NIST CURVE: P-384
        X509v3 extensions:
            X509v3 Basic Constraints: 
                CA:TRUE
            Netscape Cert Type: 
                SSL Server
            Netscape Comment: 
                SYNRC SERVER
            X509v3 Subject Key Identifier: 
                25:D9:26:D6:6B:13:33:46:14:B8:1D:DE:EC:83:6A:AC:5E:0E:E3:77
            X509v3 Authority Key Identifier: 
                keyid:5A:7F:83:A2:0E:05:E8:A2:2B:04:35:DE:9A:D9:AD:10:15:1C:63:30
                DirName:/C=UA/ST=Kyiv/O=SYNRC/CN=CA
                serial:08:74:64:5E:02:C2:C7:3B:A5:A4:BF:34:DF:13:21:3E:C5:6A:FB:07
            X509v3 Key Usage: critical
                Digital Signature, Key Encipherment
            X509v3 Extended Key Usage: 
                TLS Web Server Authentication
            X509v3 CRL Distribution Points: 
                Full Name:
                  URI:http://crl.n2o.dev:8081/eccroot.crl
            Authority Information Access: 
                CA Issuers - URI:http://crl.n2o.dev:8081/eccroot.crt
                OCSP - URI:http://ocsp.n2o.dev:8081/
            X509v3 Subject Alternative Name: 
                DNS:localhost
    Signature Algorithm: ecdsa-with-SHA384
    Signature Value:
        30:65:02:30:2c:5f:07:32:1c:f3:92:3c:00:90:2f:3b:be:7b:
        a6:9c:b0:dd:5e:20:37:f3:3a:05:72:c1:cf:e3:cf:59:66:d0:
        04:38:26:2f:9a:06:5f:80:1b:e4:63:a3:39:fb:f0:d6:02:31:
        00:e4:f8:8d:49:02:68:9c:49:be:22:78:39:55:58:e2:e1:c3:
        21:90:04:4c:71:2c:59:9e:c5:73:86:6d:4a:64:97:f2:9d:5b:
        86:5c:3e:b7:95:68:41:c0:65:85:53:b7:6d
-----BEGIN CERTIFICATE-----
MIIDVTCCAtugAwIBAgICEAEwCgYIKoZIzj0EAwMwOTELMAkGA1UEBhMCVUExDTAL
BgNVBAgMBEt5aXYxDjAMBgNVBAoMBVNZTlJDMQswCQYDVQQDDAJDQTAeFw0yNDEx
MDQyMDAyMzNaFw0yNjExMDQyMDAyMzNaMD0xCzAJBgNVBAYTAlVBMQ0wCwYDVQQI
DARLeWl2MQ4wDAYDVQQKDAVTWU5SQzEPMA0GA1UEAwwGc2VydmVyMHYwEAYHKoZI
zj0CAQYFK4EEACIDYgAEjZgpQ/LEixQ/J7z3kb0xX21tr3fgrSFe4fPu3ca469cC
e/eyYQhZH+hz2Xe9dgL3RhS6MYrhpN9cyyJPJCOAFV1B9yr98ot+FcuTQzhhL0bG
zcdVlJbqJlBv8qyBUNb+o4IBsDCCAawwDAYDVR0TBAUwAwEB/zARBglghkgBhvhC
AQEEBAMCBkAwGwYJYIZIAYb4QgENBA4WDFNZTlJDIFNFUlZFUjAdBgNVHQ4EFgQU
Jdkm1msTM0YUuB3e7INqrF4O43cwdAYDVR0jBG0wa4AUWn+Dog4F6KIrBDXemtmt
EBUcYzChPaQ7MDkxCzAJBgNVBAYTAlVBMQ0wCwYDVQQIDARLeWl2MQ4wDAYDVQQK
DAVTWU5SQzELMAkGA1UEAwwCQ0GCFAh0ZF4Cwsc7paS/NN8TIT7FavsHMA4GA1Ud
DwEB/wQEAwIFoDATBgNVHSUEDDAKBggrBgEFBQcDATA0BgNVHR8ELTArMCmgJ6Al
hiNodHRwOi8vY3JsLm4yby5kZXY6ODA4MS9lY2Nyb290LmNybDBmBggrBgEFBQcB
AQRaMFgwLwYIKwYBBQUHMAKGI2h0dHA6Ly9jcmwubjJvLmRldjo4MDgxL2VjY3Jv
b3QuY3J0MCUGCCsGAQUFBzABhhlodHRwOi8vb2NzcC5uMm8uZGV2OjgwODEvMBQG
A1UdEQQNMAuCCWxvY2FsaG9zdDAKBggqhkjOPQQDAwNoADBlAjAsXwcyHPOSPACQ
Lzu+e6acsN1eIDfzOgVywc/jz1lm0AQ4Ji+aBl+AG+Rjozn78NYCMQDk+I1JAmic
Sb4ieDlVWOLhwyGQBExxLFmexXOGbUpkl/KdW4ZcPreVaEHAZYVTt20=
-----END CERTIFICATE-----
